target datalayout = "e-m:e-p270:32:32-p271:32:32-p272:64:64-i64:64-i128:128-f80:128-n8:16:32:64-S128"
target triple = "x86_64-pc-linux-gnu"

%struct.__va_list_tag = type { i32, i32, ptr, ptr }

@.str = private unnamed_addr constant [3 x i8] c"%s\00", align 1

; Function Attrs: mustprogress nounwind uwtable
define hidden noundef ptr @_ZN12outputStream12do_vsnprintfEPcmPKcP13__va_list_tagbRm(ptr noundef %0, i64 noundef %1, ptr noundef %2, ptr noundef %3, i1 noundef zeroext %4, ptr noundef nonnull align 8 dereferenceable(8) %5) #1 align 2 {
  %7 = alloca ptr, align 8
  %8 = alloca i64, align 8
  %9 = alloca ptr, align 8
  %10 = alloca ptr, align 8
  %11 = alloca i8, align 1
  %12 = alloca ptr, align 8
  %13 = alloca ptr, align 8
  %14 = alloca i64, align 8
  %15 = alloca i32, align 4
  store ptr %0, ptr %7, align 8
  store i64 %1, ptr %8, align 8
  store ptr %2, ptr %9, align 8
  store ptr %3, ptr %10, align 8
  %16 = zext i1 %4 to i8
  store i8 %16, ptr %11, align 1
  store ptr %5, ptr %12, align 8
  store i64 0, ptr %14, align 8
  %17 = load i8, ptr %11, align 1
  %18 = trunc i8 %17 to i1
  br i1 %18, label %19, label %22

19:                                               ; preds = %6
  %20 = load i64, ptr %8, align 8
  %21 = add i64 %20, -1
  store i64 %21, ptr %8, align 8
  br label %22

22:                                               ; preds = %19, %6
  %23 = load ptr, ptr %9, align 8
  %24 = call noundef ptr @strchr(ptr noundef %23, i32 noundef 37) #11
  %25 = icmp ne ptr %24, null
  br i1 %25, label %46, label %26

26:                                               ; preds = %22
  %27 = load ptr, ptr %9, align 8
  store ptr %27, ptr %13, align 8
  %28 = load ptr, ptr %13, align 8
  %29 = call i64 @strlen(ptr noundef %28) #11
  %30 = load ptr, ptr %12, align 8
  store i64 %29, ptr %30, align 8
  %31 = load i8, ptr %11, align 1
  %32 = trunc i8 %31 to i1
  br i1 %32, label %33, label %45

33:                                               ; preds = %26
  %34 = load ptr, ptr %12, align 8
  %35 = load i64, ptr %34, align 8
  %36 = load i64, ptr %8, align 8
  %37 = icmp uge i64 %35, %36
  br i1 %37, label %38, label %45

38:                                               ; preds = %33
  %39 = load ptr, ptr %12, align 8
  %40 = load i64, ptr %39, align 8
  %41 = add i64 %40, 1
  store i64 %41, ptr %14, align 8
  %42 = load i64, ptr %8, align 8
  %43 = sub i64 %42, 1
  %44 = load ptr, ptr %12, align 8
  store i64 %43, ptr %44, align 8
  br label %45

45:                                               ; preds = %38, %33, %26
  br label %106

46:                                               ; preds = %22
  %47 = load ptr, ptr %9, align 8
  %48 = call i32 @strncmp(ptr noundef %47, ptr noundef @.str, i64 noundef 3) #11
  %49 = icmp eq i32 %48, 0
  br i1 %49, label %50, label %85

50:                                               ; preds = %46
  %51 = load ptr, ptr %10, align 8
  %52 = getelementptr inbounds %struct.__va_list_tag, ptr %51, i32 0, i32 0
  %53 = load i32, ptr %52, align 8
  %54 = icmp ule i32 %53, 40
  br i1 %54, label %55, label %60

55:                                               ; preds = %50
  %56 = getelementptr inbounds %struct.__va_list_tag, ptr %51, i32 0, i32 3
  %57 = load ptr, ptr %56, align 8
  %58 = getelementptr i8, ptr %57, i32 %53
  %59 = add i32 %53, 8
  store i32 %59, ptr %52, align 8
  br label %64

60:                                               ; preds = %50
  %61 = getelementptr inbounds %struct.__va_list_tag, ptr %51, i32 0, i32 2
  %62 = load ptr, ptr %61, align 8
  %63 = getelementptr i8, ptr %62, i32 8
  store ptr %63, ptr %61, align 8
  br label %64

64:                                               ; preds = %60, %55
  %65 = phi ptr [ %58, %55 ], [ %62, %60 ]
  %66 = load ptr, ptr %65, align 8
  store ptr %66, ptr %13, align 8
  %67 = load ptr, ptr %13, align 8
  %68 = call i64 @strlen(ptr noundef %67) #11
  %69 = load ptr, ptr %12, align 8
  store i64 %68, ptr %69, align 8
  %70 = load i8, ptr %11, align 1
  %71 = trunc i8 %70 to i1
  br i1 %71, label %72, label %84

72:                                               ; preds = %64
  %73 = load ptr, ptr %12, align 8
  %74 = load i64, ptr %73, align 8
  %75 = load i64, ptr %8, align 8
  %76 = icmp uge i64 %74, %75
  br i1 %76, label %77, label %84

77:                                               ; preds = %72
  %78 = load ptr, ptr %12, align 8
  %79 = load i64, ptr %78, align 8
  %80 = add i64 %79, 1
  store i64 %80, ptr %14, align 8
  %81 = load i64, ptr %8, align 8
  %82 = sub i64 %81, 1
  %83 = load ptr, ptr %12, align 8
  store i64 %82, ptr %83, align 8
  br label %84

84:                                               ; preds = %77, %72, %64
  br label %105

85:                                               ; preds = %46
  %86 = load ptr, ptr %7, align 8
  %87 = load i64, ptr %8, align 8
  %88 = load ptr, ptr %9, align 8
  %89 = load ptr, ptr %10, align 8
  %90 = call noundef i32 @_ZN2os9vsnprintfEPcmPKcP13__va_list_tag(ptr noundef %86, i64 noundef %87, ptr noundef %88, ptr noundef %89)
  store i32 %90, ptr %15, align 4
  %91 = load ptr, ptr %7, align 8
  store ptr %91, ptr %13, align 8
  %92 = load i32, ptr %15, align 4
  %93 = sext i32 %92 to i64
  store i64 %93, ptr %14, align 8
  %94 = load i64, ptr %14, align 8
  %95 = load i64, ptr %8, align 8
  %96 = icmp ult i64 %94, %95
  br i1 %96, label %97, label %100

97:                                               ; preds = %85
  %98 = load i64, ptr %14, align 8
  %99 = load ptr, ptr %12, align 8
  store i64 %98, ptr %99, align 8
  br label %104

100:                                              ; preds = %85
  %101 = load i64, ptr %8, align 8
  %102 = sub i64 %101, 1
  %103 = load ptr, ptr %12, align 8
  store i64 %102, ptr %103, align 8
  br label %104

104:                                              ; preds = %100, %97
  br label %105

105:                                              ; preds = %104, %84
  br label %106

106:                                              ; preds = %105, %45
  %107 = load i8, ptr %11, align 1
  %108 = trunc i8 %107 to i1
  br i1 %108, label %109, label %132

109:                                              ; preds = %106
  %110 = load ptr, ptr %13, align 8
  %111 = load ptr, ptr %7, align 8
  %112 = icmp ne ptr %110, %111
  br i1 %112, label %113, label %119

113:                                              ; preds = %109
  %114 = load ptr, ptr %7, align 8
  %115 = load ptr, ptr %13, align 8
  %116 = load ptr, ptr %12, align 8
  %117 = load i64, ptr %116, align 8
  call void @llvm.memcpy.p0.p0.i64(ptr align 1 %114, ptr align 1 %115, i64 %117, i1 false)
  %118 = load ptr, ptr %7, align 8
  store ptr %118, ptr %13, align 8
  br label %122

119:                                              ; preds = %109
  %120 = load i64, ptr %14, align 8
  %121 = add i64 %120, 1
  store i64 %121, ptr %14, align 8
  br label %122

122:                                              ; preds = %119, %113
  %123 = load ptr, ptr %7, align 8
  %124 = load ptr, ptr %12, align 8
  %125 = load i64, ptr %124, align 8
  %126 = add i64 %125, 1
  store i64 %126, ptr %124, align 8
  %127 = getelementptr inbounds i8, ptr %123, i64 %125
  store i8 10, ptr %127, align 1
  %128 = load ptr, ptr %7, align 8
  %129 = load ptr, ptr %12, align 8
  %130 = load i64, ptr %129, align 8
  %131 = getelementptr inbounds i8, ptr %128, i64 %130
  store i8 0, ptr %131, align 1
  br label %132

132:                                              ; preds = %122, %106
  %133 = load ptr, ptr %13, align 8
  ret ptr %133
}