; Function Attrs: mustprogress nounwind uwtable
define hidden noundef ptr @_ZN12outputStream12do_vsnprintfEPcmPKcP13__va_list_tagbRm(ptr noundef %0, i64 noundef %1, ptr noundef %2, ptr noundef %3, i1 noundef zeroext %4, ptr nocapture noundef nonnull align 8 dereferenceable(8) %5) local_unnamed_addr #0 align 2 {
  %7 = sext i1 %4 to i64
  %spec.select = add i64 %7, %1
  %8 = tail call noundef ptr @strchr(ptr noundef nonnull dereferenceable(1) %2, i32 noundef 37) #22
  %.not = icmp eq ptr %8, null
  br i1 %.not, label %9, label %sub_0

9:                                                ; preds = %6
  %10 = tail call i64 @strlen(ptr noundef nonnull dereferenceable(1) %2) #22
  store i64 %10, ptr %5, align 8
  %.not54 = icmp uge i64 %10, %spec.select
  %or.cond.not = select i1 %4, i1 %.not54, i1 false
  br i1 %or.cond.not, label %11, label %42

11:                                               ; preds = %9
  %12 = add i64 %spec.select, -1
  br label %.sink.split

sub_0:                                            ; preds = %6
  %13 = load i8, ptr %2, align 1
  %.not60 = icmp eq i8 %13, 37
  br i1 %.not60, label %sub_1, label %.tail.thread

sub_1:                                            ; preds = %sub_0
  %14 = getelementptr inbounds i8, ptr %2, i64 1
  %15 = load i8, ptr %14, align 1
  %.not61 = icmp eq i8 %15, 115
  br i1 %.not61, label %.tail, label %.tail.thread

.tail:                                            ; preds = %sub_1
  %16 = getelementptr inbounds i8, ptr %2, i64 2
  %17 = load i8, ptr %16, align 1
  %18 = icmp eq i8 %17, 0
  br i1 %18, label %19, label %.tail.thread

19:                                               ; preds = %.tail
  %20 = load i32, ptr %3, align 8
  %21 = icmp ult i32 %20, 41
  br i1 %21, label %22, label %28

22:                                               ; preds = %19
  %23 = getelementptr inbounds i8, ptr %3, i64 16
  %24 = load ptr, ptr %23, align 8
  %25 = zext nneg i32 %20 to i64
  %26 = getelementptr i8, ptr %24, i64 %25
  %27 = add nuw nsw i32 %20, 8
  store i32 %27, ptr %3, align 8
  br label %32

28:                                               ; preds = %19
  %29 = getelementptr inbounds i8, ptr %3, i64 8
  %30 = load ptr, ptr %29, align 8
  %31 = getelementptr i8, ptr %30, i64 8
  store ptr %31, ptr %29, align 8
  br label %32

32:                                               ; preds = %28, %22
  %33 = phi ptr [ %26, %22 ], [ %30, %28 ]
  %34 = load ptr, ptr %33, align 8
  %35 = tail call i64 @strlen(ptr noundef nonnull dereferenceable(1) %34) #22
  store i64 %35, ptr %5, align 8
  %.not55 = icmp uge i64 %35, %spec.select
  %or.cond59.not = select i1 %4, i1 %.not55, i1 false
  br i1 %or.cond59.not, label %36, label %42

36:                                               ; preds = %32
  %37 = add i64 %spec.select, -1
  br label %.sink.split

.tail.thread:                                     ; preds = %sub_1, %sub_0, %.tail
  %38 = tail call noundef i32 @_ZN2os9vsnprintfEPcmPKcP13__va_list_tag(ptr noundef %0, i64 noundef %spec.select, ptr noundef nonnull %2, ptr noundef %3) #21
  %39 = sext i32 %38 to i64
  %40 = icmp ugt i64 %spec.select, %39
  %41 = add i64 %spec.select, -1
  %spec.select62 = select i1 %40, i64 %39, i64 %41
  %spec.select63 = select i1 %40, i64 %39, i64 %41
  br label %.sink.split

.sink.split:                                      ; preds = %.tail.thread, %11, %36
  %.sink = phi i64 [ %37, %36 ], [ %12, %11 ], [ %spec.select62, %.tail.thread ]
  %.ph = phi i64 [ %37, %36 ], [ %12, %11 ], [ %spec.select63, %.tail.thread ]
  %.047.ph = phi ptr [ %34, %36 ], [ %2, %11 ], [ %0, %.tail.thread ]
  store i64 %.sink, ptr %5, align 8
  br label %42

42:                                               ; preds = %.sink.split, %32, %9
  %43 = phi i64 [ %35, %32 ], [ %10, %9 ], [ %.ph, %.sink.split ]
  %.047 = phi ptr [ %34, %32 ], [ %2, %9 ], [ %.047.ph, %.sink.split ]
  br i1 %4, label %44, label %52

44:                                               ; preds = %42
  %.not56 = icmp eq ptr %.047, %0
  br i1 %.not56, label %46, label %45

45:                                               ; preds = %44
  tail call void @llvm.memcpy.p0.p0.i64(ptr align 1 %0, ptr align 1 %.047, i64 %43, i1 false)
  %.pre = load i64, ptr %5, align 8
  br label %46

46:                                               ; preds = %44, %45
  %47 = phi i64 [ %.pre, %45 ], [ %43, %44 ]
  %.1 = phi ptr [ %0, %45 ], [ %.047, %44 ]
  %48 = add i64 %47, 1
  store i64 %48, ptr %5, align 8
  %49 = getelementptr inbounds i8, ptr %0, i64 %47
  store i8 10, ptr %49, align 1
  %50 = load i64, ptr %5, align 8
  %51 = getelementptr inbounds i8, ptr %0, i64 %50
  store i8 0, ptr %51, align 1
  br label %52

52:                                               ; preds = %46, %42
  %.2 = phi ptr [ %.1, %46 ], [ %.047, %42 ]
  ret ptr %.2
}